target datalayout = "e-m:e-p270:32:32-p271:32:32-p272:64:64-i64:64-i128:128-f80:128-n8:16:32:64-S128"
target triple = "x86_64-pc-linux-gnu"

; Function Attrs: mustprogress nounwind uwtable
define noundef ptr @_ZN6icu_7712PropNameData7getNameEPKci(ptr noundef %0, i32 noundef %1) #3 align 2 {
  %3 = alloca ptr, align 8
  %4 = alloca ptr, align 8
  %5 = alloca i32, align 4
  %6 = alloca i32, align 4
  %7 = alloca i32, align 4
  store ptr %0, ptr %4, align 8, !tbaa !3
  store i32 %1, ptr %5, align 4, !tbaa !8
  call void @llvm.lifetime.start.p0(i64 4, ptr %6) #7
  %8 = load ptr, ptr %4, align 8, !tbaa !3
  %9 = getelementptr inbounds nuw i8, ptr %8, i32 1
  store ptr %9, ptr %4, align 8, !tbaa !3
  %10 = load i8, ptr %8, align 1, !tbaa !12
  %11 = sext i8 %10 to i32
  store i32 %11, ptr %6, align 4, !tbaa !8
  %12 = load i32, ptr %5, align 4, !tbaa !8
  %13 = icmp slt i32 %12, 0
  br i1 %13, label %18, label %14

14:                                               ; preds = %2
  %15 = load i32, ptr %6, align 4, !tbaa !8
  %16 = load i32, ptr %5, align 4, !tbaa !8
  %17 = icmp sle i32 %15, %16
  br i1 %17, label %18, label %19

18:                                               ; preds = %14, %2
  store ptr null, ptr %3, align 8
  store i32 1, ptr %7, align 4
  br label %38

19:                                               ; preds = %14
  br label %20

20:                                               ; preds = %27, %19
  %21 = load i32, ptr %5, align 4, !tbaa !8
  %22 = icmp sgt i32 %21, 0
  br i1 %22, label %23, label %30

23:                                               ; preds = %20
  %24 = load ptr, ptr %4, align 8, !tbaa !3
  %25 = call noundef ptr @strchr(ptr noundef %24, i32 noundef 0) #8
  %26 = getelementptr inbounds i8, ptr %25, i64 1
  store ptr %26, ptr %4, align 8, !tbaa !3
  br label %27

27:                                               ; preds = %23
  %28 = load i32, ptr %5, align 4, !tbaa !8
  %29 = add nsw i32 %28, -1
  store i32 %29, ptr %5, align 4, !tbaa !8
  br label %20, !llvm.loop !19

30:                                               ; preds = %20
  %31 = load ptr, ptr %4, align 8, !tbaa !3
  %32 = load i8, ptr %31, align 1, !tbaa !12
  %33 = sext i8 %32 to i32
  %34 = icmp eq i32 %33, 0
  br i1 %34, label %35, label %36

35:                                               ; preds = %30
  store ptr null, ptr %3, align 8
  store i32 1, ptr %7, align 4
  br label %38

36:                                               ; preds = %30
  %37 = load ptr, ptr %4, align 8, !tbaa !3
  store ptr %37, ptr %3, align 8
  store i32 1, ptr %7, align 4
  br label %38

38:                                               ; preds = %36, %35, %18
  call void @llvm.lifetime.end.p0(i64 4, ptr %6) #7
  %39 = load ptr, ptr %3, align 8
  ret ptr %39
}

; Function Attrs: mustprogress nounwind uwtable
define noundef i32 @_ZN6icu_7712PropNameData12findPropertyEi(i32 noundef %0) #3 align 2 {
  %2 = alloca i32, align 4
  %3 = alloca i32, align 4
  %4 = alloca i32, align 4
  %5 = alloca i32, align 4
  %6 = alloca i32, align 4
  %7 = alloca i32, align 4
  %8 = alloca i32, align 4
  store i32 %0, ptr %3, align 4, !tbaa !8
  call void @llvm.lifetime.start.p0(i64 4, ptr %4) #7
  store i32 1, ptr %4, align 4, !tbaa !8
  call void @llvm.lifetime.start.p0(i64 4, ptr %5) #7
  %9 = load i32, ptr @_ZN6icu_7712PropNameData9valueMapsE, align 16, !tbaa !8
  store i32 %9, ptr %5, align 4, !tbaa !8
  br label %10

10:                                               ; preds = %51, %1
  %11 = load i32, ptr %5, align 4, !tbaa !8
  %12 = icmp sgt i32 %11, 0
  br i1 %12, label %14, label %13

13:                                               ; preds = %10
  store i32 2, ptr %6, align 4
  br label %54

14:                                               ; preds = %10
  call void @llvm.lifetime.start.p0(i64 4, ptr %7) #7
  %15 = load i32, ptr %4, align 4, !tbaa !8
  %16 = sext i32 %15 to i64
  %17 = getelementptr inbounds [1494 x i32], ptr @_ZN6icu_7712PropNameData9valueMapsE, i64 0, i64 %16
  %18 = load i32, ptr %17, align 4, !tbaa !8
  store i32 %18, ptr %7, align 4, !tbaa !8
  call void @llvm.lifetime.start.p0(i64 4, ptr %8) #7
  %19 = load i32, ptr %4, align 4, !tbaa !8
  %20 = add nsw i32 %19, 1
  %21 = sext i32 %20 to i64
  %22 = getelementptr inbounds [1494 x i32], ptr @_ZN6icu_7712PropNameData9valueMapsE, i64 0, i64 %21
  %23 = load i32, ptr %22, align 4, !tbaa !8
  store i32 %23, ptr %8, align 4, !tbaa !8
  %24 = load i32, ptr %4, align 4, !tbaa !8
  %25 = add nsw i32 %24, 2
  store i32 %25, ptr %4, align 4, !tbaa !8
  %26 = load i32, ptr %3, align 4, !tbaa !8
  %27 = load i32, ptr %7, align 4, !tbaa !8
  %28 = icmp slt i32 %26, %27
  br i1 %28, label %29, label %30

29:                                               ; preds = %14
  store i32 2, ptr %6, align 4
  br label %48

30:                                               ; preds = %14
  %31 = load i32, ptr %3, align 4, !tbaa !8
  %32 = load i32, ptr %8, align 4, !tbaa !8
  %33 = icmp slt i32 %31, %32
  br i1 %33, label %34, label %41

34:                                               ; preds = %30
  %35 = load i32, ptr %4, align 4, !tbaa !8
  %36 = load i32, ptr %3, align 4, !tbaa !8
  %37 = load i32, ptr %7, align 4, !tbaa !8
  %38 = sub nsw i32 %36, %37
  %39 = mul nsw i32 %38, 2
  %40 = add nsw i32 %35, %39
  store i32 %40, ptr %2, align 4
  store i32 1, ptr %6, align 4
  br label %48

41:                                               ; preds = %30
  %42 = load i32, ptr %8, align 4, !tbaa !8
  %43 = load i32, ptr %7, align 4, !tbaa !8
  %44 = sub nsw i32 %42, %43
  %45 = mul nsw i32 %44, 2
  %46 = load i32, ptr %4, align 4, !tbaa !8
  %47 = add nsw i32 %46, %45
  store i32 %47, ptr %4, align 4, !tbaa !8
  store i32 0, ptr %6, align 4
  br label %48

48:                                               ; preds = %41, %34, %29
  call void @llvm.lifetime.end.p0(i64 4, ptr %8) #7
  call void @llvm.lifetime.end.p0(i64 4, ptr %7) #7
  %49 = load i32, ptr %6, align 4
  switch i32 %49, label %54 [
    i32 0, label %50
  ]

50:                                               ; preds = %48
  br label %51

51:                                               ; preds = %50
  %52 = load i32, ptr %5, align 4, !tbaa !8
  %53 = add nsw i32 %52, -1
  store i32 %53, ptr %5, align 4, !tbaa !8
  br label %10, !llvm.loop !16

54:                                               ; preds = %48, %13
  call void @llvm.lifetime.end.p0(i64 4, ptr %5) #7
  %55 = load i32, ptr %6, align 4
  switch i32 %55, label %57 [
    i32 2, label %56
  ]

56:                                               ; preds = %54
  store i32 0, ptr %2, align 4
  store i32 1, ptr %6, align 4
  br label %57

57:                                               ; preds = %56, %54
  call void @llvm.lifetime.end.p0(i64 4, ptr %4) #7
  %58 = load i32, ptr %2, align 4
  ret i32 %58
}

; Function Attrs: mustprogress nounwind uwtable
define noundef ptr @_ZN6icu_7712PropNameData15getPropertyNameEii(i32 noundef %0, i32 noundef %1) #3 align 2 {
  %3 = alloca ptr, align 8
  %4 = alloca i32, align 4
  %5 = alloca i32, align 4
  %6 = alloca i32, align 4
  %7 = alloca i32, align 4
  store i32 %0, ptr %4, align 4, !tbaa !8
  store i32 %1, ptr %5, align 4, !tbaa !8
  call void @llvm.lifetime.start.p0(i64 4, ptr %6) #7
  %8 = load i32, ptr %4, align 4, !tbaa !8
  %9 = call noundef i32 @_ZN6icu_7712PropNameData12findPropertyEi(i32 noundef %8)
  store i32 %9, ptr %6, align 4, !tbaa !8
  %10 = load i32, ptr %6, align 4, !tbaa !8
  %11 = icmp eq i32 %10, 0
  br i1 %11, label %12, label %13

12:                                               ; preds = %2
  store ptr null, ptr %3, align 8
  store i32 1, ptr %7, align 4
  br label %22

13:                                               ; preds = %2
  %14 = load i32, ptr %6, align 4, !tbaa !8
  %15 = sext i32 %14 to i64
  %16 = getelementptr inbounds [1494 x i32], ptr @_ZN6icu_7712PropNameData9valueMapsE, i64 0, i64 %15
  %17 = load i32, ptr %16, align 4, !tbaa !8
  %18 = sext i32 %17 to i64
  %19 = getelementptr inbounds i8, ptr @_ZN6icu_7712PropNameData10nameGroupsE, i64 %18
  %20 = load i32, ptr %5, align 4, !tbaa !8
  %21 = call noundef ptr @_ZN6icu_7712PropNameData7getNameEPKci(ptr noundef %19, i32 noundef %20)
  store ptr %21, ptr %3, align 8
  store i32 1, ptr %7, align 4
  br label %22

22:                                               ; preds = %13, %12
  call void @llvm.lifetime.end.p0(i64 4, ptr %6) #7
  %23 = load ptr, ptr %3, align 8
  ret ptr %23
}