; Function Attrs: mustprogress nofree nosync nounwind willreturn memory(none) uwtable
define noundef ptr @_ZN6icu_7712PropNameData15getPropertyNameEii(i32 noundef %0, i32 noundef %1) local_unnamed_addr #5 align 2 {
  br label %3

3:                                                ; preds = %15, %2
  %.01941.i = phi i32 [ 1, %2 ], [ %18, %15 ]
  %.02340.i = phi i32 [ 6, %2 ], [ %19, %15 ]
  %4 = sext i32 %.01941.i to i64
  %5 = getelementptr inbounds [1494 x i32], ptr @_ZN6icu_7712PropNameData9valueMapsE, i64 0, i64 %4
  %6 = load i32, ptr %5, align 4, !tbaa !10
  %7 = add nsw i32 %.01941.i, 1
  %8 = sext i32 %7 to i64
  %9 = getelementptr inbounds [1494 x i32], ptr @_ZN6icu_7712PropNameData9valueMapsE, i64 0, i64 %8
  %10 = load i32, ptr %9, align 4, !tbaa !10
  %11 = add nsw i32 %.01941.i, 2
  %12 = icmp slt i32 %0, %6
  br i1 %12, label %_ZN6icu_7712PropNameData7getNameEPKci.exit, label %13

13:                                               ; preds = %3
  %14 = icmp slt i32 %0, %10
  br i1 %14, label %_ZN6icu_7712PropNameData12findPropertyEi.exit, label %15

15:                                               ; preds = %13
  %16 = sub nsw i32 %10, %6
  %17 = shl nsw i32 %16, 1
  %18 = add nsw i32 %17, %11
  %19 = add nsw i32 %.02340.i, -1
  %20 = icmp ugt i32 %.02340.i, 1
  br i1 %20, label %3, label %_ZN6icu_7712PropNameData7getNameEPKci.exit, !llvm.loop !12

_ZN6icu_7712PropNameData12findPropertyEi.exit:    ; preds = %13
  %21 = sub nsw i32 %0, %6
  %22 = shl nsw i32 %21, 1
  %23 = add nsw i32 %22, %11
  %24 = icmp eq i32 %23, 0
  br i1 %24, label %_ZN6icu_7712PropNameData7getNameEPKci.exit, label %25

25:                                               ; preds = %_ZN6icu_7712PropNameData12findPropertyEi.exit
  %26 = sext i32 %23 to i64
  %27 = getelementptr inbounds [1494 x i32], ptr @_ZN6icu_7712PropNameData9valueMapsE, i64 0, i64 %26
  %28 = load i32, ptr %27, align 4, !tbaa !10
  %29 = sext i32 %28 to i64
  %30 = getelementptr inbounds i8, ptr @_ZN6icu_7712PropNameData10nameGroupsE, i64 %29
  %31 = icmp slt i32 %1, 0
  br i1 %31, label %_ZN6icu_7712PropNameData7getNameEPKci.exit, label %32

32:                                               ; preds = %25
  %33 = load i8, ptr %30, align 1, !tbaa !3
  %34 = sext i8 %33 to i32
  %.not.i = icmp slt i32 %1, %34
  br i1 %.not.i, label %.preheader.i, label %_ZN6icu_7712PropNameData7getNameEPKci.exit

.preheader.i:                                     ; preds = %32
  %.01012.i = getelementptr inbounds nuw i8, ptr %30, i64 1
  %.not15.i = icmp eq i32 %1, 0
  br i1 %.not15.i, label %._crit_edge.i, label %.lr.ph.i

.lr.ph.i:                                         ; preds = %.preheader.i, %.lr.ph.i
  %.01014.i = phi ptr [ %.010.i, %.lr.ph.i ], [ %.01012.i, %.preheader.i ]
  %.0913.i = phi i32 [ %35, %.lr.ph.i ], [ %1, %.preheader.i ]
  %strlen.i = tail call i64 @strlen(ptr noundef nonnull dereferenceable(1) %.01014.i)
  %strchr.i = getelementptr inbounds i8, ptr %.01014.i, i64 %strlen.i
  %35 = add nsw i32 %.0913.i, -1
  %.010.i = getelementptr inbounds nuw i8, ptr %strchr.i, i64 1
  %36 = icmp samesign ugt i32 %.0913.i, 1
  br i1 %36, label %.lr.ph.i, label %._crit_edge.i, !llvm.loop !15

._crit_edge.i:                                    ; preds = %.lr.ph.i, %.preheader.i
  %.010.lcssa.i = phi ptr [ %.01012.i, %.preheader.i ], [ %.010.i, %.lr.ph.i ]
  %37 = load i8, ptr %.010.lcssa.i, align 1, !tbaa !3
  %38 = icmp eq i8 %37, 0
  %..010.i = select i1 %38, ptr null, ptr %.010.lcssa.i
  br label %_ZN6icu_7712PropNameData7getNameEPKci.exit

_ZN6icu_7712PropNameData7getNameEPKci.exit:       ; preds = %3, %15, %._crit_edge.i, %32, %25, %_ZN6icu_7712PropNameData12findPropertyEi.exit
  %.0 = phi ptr [ null, %_ZN6icu_7712PropNameData12findPropertyEi.exit ], [ null, %32 ], [ null, %25 ], [ %..010.i, %._crit_edge.i ], [ null, %15 ], [ null, %3 ]
  ret ptr %.0
}